target datalayout = "e-m:e-p270:32:32-p271:32:32-p272:64:64-i64:64-i128:128-f80:128-n8:16:32:64-S128"
target triple = "x86_64-unknown-linux-gnu"

%"struct.facebook::velox::common::hll::(anonymous namespace)::DenseHllView" = type { i8, i8, ptr, i16, ptr, ptr }
%"struct.facebook::velox::common::InputByteStream" = type <{ ptr, i32, [4 x i8] }>

; Function Attrs: mustprogress nounwind uwtable
define linkonce_odr noundef ptr @_ZN8facebook5velox6common15InputByteStream4readItEEPKT_i(ptr noundef nonnull align 8 dereferenceable(12) %this, i32 noundef %size) #1 comdat align 2 {
entry:
  %this.addr = alloca ptr, align 8
  %size.addr = alloca i32, align 4
  %result = alloca ptr, align 8
  store ptr %this, ptr %this.addr, align 8
  store i32 %size, ptr %size.addr, align 4
  %this1 = load ptr, ptr %this.addr, align 8
  %data_ = getelementptr inbounds %"struct.facebook::velox::common::InputByteStream", ptr %this1, i32 0, i32 0
  %0 = load ptr, ptr %data_, align 8
  %offset_ = getelementptr inbounds %"struct.facebook::velox::common::InputByteStream", ptr %this1, i32 0, i32 1
  %1 = load i32, ptr %offset_, align 8
  %idx.ext = sext i32 %1 to i64
  %add.ptr = getelementptr inbounds i8, ptr %0, i64 %idx.ext
  store ptr %add.ptr, ptr %result, align 8
  %2 = load i32, ptr %size.addr, align 4
  %conv = sext i32 %2 to i64
  %mul = mul i64 %conv, 2
  %offset_2 = getelementptr inbounds %"struct.facebook::velox::common::InputByteStream", ptr %this1, i32 0, i32 1
  %3 = load i32, ptr %offset_2, align 8
  %conv3 = sext i32 %3 to i64
  %add = add i64 %conv3, %mul
  %conv4 = trunc i64 %add to i32
  store i32 %conv4, ptr %offset_2, align 8
  %4 = load ptr, ptr %result, align 8
  ret ptr %4
}

; Function Attrs: mustprogress nounwind uwtable
define linkonce_odr noundef signext i16 @_ZN8facebook5velox6common15InputByteStream4readIsEET_v(ptr noundef nonnull align 8 dereferenceable(12) %this) #1 comdat align 2 {
entry:
  %this.addr = alloca ptr, align 8
  %value = alloca i16, align 2
  store ptr %this, ptr %this.addr, align 8
  %this1 = load ptr, ptr %this.addr, align 8
  %data_ = getelementptr inbounds %"struct.facebook::velox::common::InputByteStream", ptr %this1, i32 0, i32 0
  %0 = load ptr, ptr %data_, align 8
  %offset_ = getelementptr inbounds %"struct.facebook::velox::common::InputByteStream", ptr %this1, i32 0, i32 1
  %1 = load i32, ptr %offset_, align 8
  %idx.ext = sext i32 %1 to i64
  %add.ptr = getelementptr inbounds i8, ptr %0, i64 %idx.ext
  %2 = load i16, ptr %add.ptr, align 2
  store i16 %2, ptr %value, align 2
  %offset_2 = getelementptr inbounds %"struct.facebook::velox::common::InputByteStream", ptr %this1, i32 0, i32 1
  %3 = load i32, ptr %offset_2, align 8
  %conv = sext i32 %3 to i64
  %add = add i64 %conv, 2
  %conv3 = trunc i64 %add to i32
  store i32 %conv3, ptr %offset_2, align 8
  %4 = load i16, ptr %value, align 2
  ret i16 %4
}

; Function Attrs: mustprogress nounwind uwtable
define linkonce_odr noundef ptr @_ZN8facebook5velox6common15InputByteStream4readIaEEPKT_i(ptr noundef nonnull align 8 dereferenceable(12) %this, i32 noundef %size) #1 comdat align 2 {
entry:
  %this.addr = alloca ptr, align 8
  %size.addr = alloca i32, align 4
  %result = alloca ptr, align 8
  store ptr %this, ptr %this.addr, align 8
  store i32 %size, ptr %size.addr, align 4
  %this1 = load ptr, ptr %this.addr, align 8
  %data_ = getelementptr inbounds %"struct.facebook::velox::common::InputByteStream", ptr %this1, i32 0, i32 0
  %0 = load ptr, ptr %data_, align 8
  %offset_ = getelementptr inbounds %"struct.facebook::velox::common::InputByteStream", ptr %this1, i32 0, i32 1
  %1 = load i32, ptr %offset_, align 8
  %idx.ext = sext i32 %1 to i64
  %add.ptr = getelementptr inbounds i8, ptr %0, i64 %idx.ext
  store ptr %add.ptr, ptr %result, align 8
  %2 = load i32, ptr %size.addr, align 4
  %conv = sext i32 %2 to i64
  %mul = mul i64 %conv, 1
  %offset_2 = getelementptr inbounds %"struct.facebook::velox::common::InputByteStream", ptr %this1, i32 0, i32 1
  %3 = load i32, ptr %offset_2, align 8
  %conv3 = sext i32 %3 to i64
  %add = add i64 %conv3, %mul
  %conv4 = trunc i64 %add to i32
  store i32 %conv4, ptr %offset_2, align 8
  %4 = load ptr, ptr %result, align 8
  ret ptr %4
}

; Function Attrs: mustprogress nounwind uwtable
define linkonce_odr noundef signext i8 @_ZN8facebook5velox6common15InputByteStream4readIaEET_v(ptr noundef nonnull align 8 dereferenceable(12) %this) #1 comdat align 2 {
entry:
  %this.addr = alloca ptr, align 8
  %value = alloca i8, align 1
  store ptr %this, ptr %this.addr, align 8
  %this1 = load ptr, ptr %this.addr, align 8
  %data_ = getelementptr inbounds %"struct.facebook::velox::common::InputByteStream", ptr %this1, i32 0, i32 0
  %0 = load ptr, ptr %data_, align 8
  %offset_ = getelementptr inbounds %"struct.facebook::velox::common::InputByteStream", ptr %this1, i32 0, i32 1
  %1 = load i32, ptr %offset_, align 8
  %idx.ext = sext i32 %1 to i64
  %add.ptr = getelementptr inbounds i8, ptr %0, i64 %idx.ext
  %2 = load i8, ptr %add.ptr, align 1
  store i8 %2, ptr %value, align 1
  %offset_2 = getelementptr inbounds %"struct.facebook::velox::common::InputByteStream", ptr %this1, i32 0, i32 1
  %3 = load i32, ptr %offset_2, align 8
  %conv = sext i32 %3 to i64
  %add = add i64 %conv, 1
  %conv3 = trunc i64 %add to i32
  store i32 %conv3, ptr %offset_2, align 8
  %4 = load i8, ptr %value, align 1
  ret i8 %4
}

; Function Attrs: mustprogress nounwind uwtable
define linkonce_odr void @_ZN8facebook5velox6common15InputByteStreamC2EPKc(ptr noundef nonnull align 8 dereferenceable(12) %this, ptr noundef %data) unnamed_addr #1 comdat align 2 {
entry:
  %this.addr = alloca ptr, align 8
  %data.addr = alloca ptr, align 8
  store ptr %this, ptr %this.addr, align 8
  store ptr %data, ptr %data.addr, align 8
  %this1 = load ptr, ptr %this.addr, align 8
  %data_ = getelementptr inbounds %"struct.facebook::velox::common::InputByteStream", ptr %this1, i32 0, i32 0
  %0 = load ptr, ptr %data.addr, align 8
  store ptr %0, ptr %data_, align 8
  %offset_ = getelementptr inbounds %"struct.facebook::velox::common::InputByteStream", ptr %this1, i32 0, i32 1
  store i32 0, ptr %offset_, align 8
  ret void
}

; Function Attrs: mustprogress uwtable
define internal void @_ZN8facebook5velox6common3hll12_GLOBAL__N_111deserializeEPKc(ptr noalias sret(%"struct.facebook::velox::common::hll::(anonymous namespace)::DenseHllView") align 8 %agg.result, ptr noundef %serialized) #0 {
entry:
  %serialized.addr = alloca ptr, align 8
  %stream = alloca %"struct.facebook::velox::common::InputByteStream", align 8
  %version = alloca i8, align 1
  %indexBitLength = alloca i8, align 1
  %baseline = alloca i8, align 1
  %numBuckets = alloca i32, align 4
  %deltas = alloca ptr, align 8
  %overflows = alloca i16, align 2
  %overflowBuckets = alloca ptr, align 8
  %overflowValues = alloca ptr, align 8
  store ptr %serialized, ptr %serialized.addr, align 8
  %0 = load ptr, ptr %serialized.addr, align 8
  call void @_ZN8facebook5velox6common15InputByteStreamC2EPKc(ptr noundef nonnull align 8 dereferenceable(12) %stream, ptr noundef %0)
  %call = call noundef signext i8 @_ZN8facebook5velox6common15InputByteStream4readIaEET_v(ptr noundef nonnull align 8 dereferenceable(12) %stream)
  store i8 %call, ptr %version, align 1
  %1 = load i8, ptr %version, align 1
  %conv = sext i8 %1 to i32
  %cmp = icmp eq i32 3, %conv
  %lnot = xor i1 %cmp, true
  br i1 %lnot, label %if.then, label %if.end

if.then:                                          ; preds = %entry
  call void @llvm.trap()
  br label %if.end

if.end:                                           ; preds = %if.then, %entry
  %call2 = call noundef signext i8 @_ZN8facebook5velox6common15InputByteStream4readIaEET_v(ptr noundef nonnull align 8 dereferenceable(12) %stream)
  store i8 %call2, ptr %indexBitLength, align 1
  %call3 = call noundef signext i8 @_ZN8facebook5velox6common15InputByteStream4readIaEET_v(ptr noundef nonnull align 8 dereferenceable(12) %stream)
  store i8 %call3, ptr %baseline, align 1
  %2 = load i8, ptr %indexBitLength, align 1
  %conv4 = sext i8 %2 to i32
  %shl = shl i32 1, %conv4
  store i32 %shl, ptr %numBuckets, align 4
  %3 = load i32, ptr %numBuckets, align 4
  %div = sdiv i32 %3, 2
  %call5 = call noundef ptr @_ZN8facebook5velox6common15InputByteStream4readIaEEPKT_i(ptr noundef nonnull align 8 dereferenceable(12) %stream, i32 noundef %div)
  store ptr %call5, ptr %deltas, align 8
  %call6 = call noundef signext i16 @_ZN8facebook5velox6common15InputByteStream4readIsEET_v(ptr noundef nonnull align 8 dereferenceable(12) %stream)
  store i16 %call6, ptr %overflows, align 2
  %4 = load i16, ptr %overflows, align 2
  %tobool = icmp ne i16 %4, 0
  br i1 %tobool, label %cond.true, label %cond.false

cond.true:                                        ; preds = %if.end
  %5 = load i16, ptr %overflows, align 2
  %conv7 = sext i16 %5 to i32
  %call8 = call noundef ptr @_ZN8facebook5velox6common15InputByteStream4readItEEPKT_i(ptr noundef nonnull align 8 dereferenceable(12) %stream, i32 noundef %conv7)
  br label %cond.end

cond.false:                                       ; preds = %if.end
  br label %cond.end

cond.end:                                         ; preds = %cond.false, %cond.true
  %cond = phi ptr [ %call8, %cond.true ], [ null, %cond.false ]
  store ptr %cond, ptr %overflowBuckets, align 8
  %6 = load i16, ptr %overflows, align 2
  %tobool9 = icmp ne i16 %6, 0
  br i1 %tobool9, label %cond.true10, label %cond.false13

cond.true10:                                      ; preds = %cond.end
  %7 = load i16, ptr %overflows, align 2
  %conv11 = sext i16 %7 to i32
  %call12 = call noundef ptr @_ZN8facebook5velox6common15InputByteStream4readIaEEPKT_i(ptr noundef nonnull align 8 dereferenceable(12) %stream, i32 noundef %conv11)
  br label %cond.end14

cond.false13:                                     ; preds = %cond.end
  br label %cond.end14

cond.end14:                                       ; preds = %cond.false13, %cond.true10
  %cond15 = phi ptr [ %call12, %cond.true10 ], [ null, %cond.false13 ]
  store ptr %cond15, ptr %overflowValues, align 8
  %indexBitLength16 = getelementptr inbounds %"struct.facebook::velox::common::hll::(anonymous namespace)::DenseHllView", ptr %agg.result, i32 0, i32 0
  %8 = load i8, ptr %indexBitLength, align 1
  store i8 %8, ptr %indexBitLength16, align 8
  %baseline17 = getelementptr inbounds %"struct.facebook::velox::common::hll::(anonymous namespace)::DenseHllView", ptr %agg.result, i32 0, i32 1
  %9 = load i8, ptr %baseline, align 1
  store i8 %9, ptr %baseline17, align 1
  %deltas18 = getelementptr inbounds %"struct.facebook::velox::common::hll::(anonymous namespace)::DenseHllView", ptr %agg.result, i32 0, i32 2
  %10 = load ptr, ptr %deltas, align 8
  store ptr %10, ptr %deltas18, align 8
  %overflows19 = getelementptr inbounds %"struct.facebook::velox::common::hll::(anonymous namespace)::DenseHllView", ptr %agg.result, i32 0, i32 3
  %11 = load i16, ptr %overflows, align 2
  store i16 %11, ptr %overflows19, align 8
  %overflowBuckets20 = getelementptr inbounds %"struct.facebook::velox::common::hll::(anonymous namespace)::DenseHllView", ptr %agg.result, i32 0, i32 4
  %12 = load ptr, ptr %overflowBuckets, align 8
  store ptr %12, ptr %overflowBuckets20, align 8
  %overflowValues21 = getelementptr inbounds %"struct.facebook::velox::common::hll::(anonymous namespace)::DenseHllView", ptr %agg.result, i32 0, i32 5
  %13 = load ptr, ptr %overflowValues, align 8
  store ptr %13, ptr %overflowValues21, align 8
  ret void
}

; Function Attrs: mustprogress uwtable
define noundef i64 @_ZN8facebook5velox6common3hll8DenseHll11cardinalityEPKc(ptr noundef %serialized) #0 align 2 {
entry:
  %serialized.addr = alloca ptr, align 8
  %hll = alloca %"struct.facebook::velox::common::hll::(anonymous namespace)::DenseHllView", align 8
  store ptr %serialized, ptr %serialized.addr, align 8
  %0 = load ptr, ptr %serialized.addr, align 8
  call void @_ZN8facebook5velox6common3hll12_GLOBAL__N_111deserializeEPKc(ptr sret(%"struct.facebook::velox::common::hll::(anonymous namespace)::DenseHllView") align 8 %hll, ptr noundef %0)
  %call = call noundef i64 @_ZN8facebook5velox6common3hll12_GLOBAL__N_115cardinalityImplERKNS3_12DenseHllViewE(ptr noundef nonnull align 8 dereferenceable(40) %hll)
  ret i64 %call
}