; Function Attrs: mustprogress nounwind uwtable
define noundef i64 @_ZN8facebook5velox6common3hll8DenseHll11cardinalityEPKc(ptr noundef %serialized) local_unnamed_addr #1 align 2 {
entry:
  %hll = alloca %"struct.facebook::velox::common::hll::(anonymous namespace)::DenseHllView", align 8
  tail call void @llvm.experimental.noalias.scope.decl(metadata !13)
  %0 = load i8, ptr %serialized, align 1, !noalias !13
  %cmp.not.i = icmp eq i8 %0, 3
  br i1 %cmp.not.i, label %if.end.i, label %if.then.i

if.then.i:                                        ; preds = %entry
  tail call void @llvm.trap()
  unreachable

if.end.i:                                         ; preds = %entry
  %add.ptr.i10.i = getelementptr inbounds nuw i8, ptr %serialized, i64 1
  %1 = load i8, ptr %add.ptr.i10.i, align 1, !noalias !13
  %add.ptr.i14.i = getelementptr inbounds nuw i8, ptr %serialized, i64 2
  %2 = load i8, ptr %add.ptr.i14.i, align 1, !noalias !13
  %conv46.i = zext nneg i8 %1 to i32
  %shl.i = shl nuw i32 1, %conv46.i
  %div.i = sdiv i32 %shl.i, 2
  %3 = sext i32 %div.i to i64
  %4 = getelementptr i8, ptr %serialized, i64 %3
  %add.ptr.i22.i = getelementptr i8, ptr %4, i64 3
  %5 = load i16, ptr %add.ptr.i22.i, align 2, !noalias !13
  %tobool.not.i = icmp eq i16 %5, 0
  br i1 %tobool.not.i, label %_ZN8facebook5velox6common3hll12_GLOBAL__N_111deserializeEPKc.exit, label %cond.true10.i

cond.true10.i:                                    ; preds = %if.end.i
  %add.i23.i = add nsw i32 %div.i, 5
  %conv7.i = sext i16 %5 to i32
  %idx.ext.i25.i = sext i32 %add.i23.i to i64
  %add.ptr.i26.i = getelementptr inbounds i8, ptr %serialized, i64 %idx.ext.i25.i
  %mul.i.i = shl nsw i32 %conv7.i, 1
  %add.i27.i = add nsw i32 %add.i23.i, %mul.i.i
  %idx.ext.i29.i = sext i32 %add.i27.i to i64
  %add.ptr.i30.i = getelementptr inbounds i8, ptr %serialized, i64 %idx.ext.i29.i
  br label %_ZN8facebook5velox6common3hll12_GLOBAL__N_111deserializeEPKc.exit

_ZN8facebook5velox6common3hll12_GLOBAL__N_111deserializeEPKc.exit: ; preds = %if.end.i, %cond.true10.i
  %cond46.i = phi ptr [ %add.ptr.i26.i, %cond.true10.i ], [ null, %if.end.i ]
  %cond15.i = phi ptr [ %add.ptr.i30.i, %cond.true10.i ], [ null, %if.end.i ]
  %add.ptr.i18.i = getelementptr inbounds nuw i8, ptr %serialized, i64 3
  store i8 %1, ptr %hll, align 8, !alias.scope !13
  %baseline17.i = getelementptr inbounds nuw i8, ptr %hll, i64 1
  store i8 %2, ptr %baseline17.i, align 1, !alias.scope !13
  %deltas18.i = getelementptr inbounds nuw i8, ptr %hll, i64 8
  store ptr %add.ptr.i18.i, ptr %deltas18.i, align 8, !alias.scope !13
  %overflows19.i = getelementptr inbounds nuw i8, ptr %hll, i64 16
  store i16 %5, ptr %overflows19.i, align 8, !alias.scope !13
  %overflowBuckets20.i = getelementptr inbounds nuw i8, ptr %hll, i64 24
  store ptr %cond46.i, ptr %overflowBuckets20.i, align 8, !alias.scope !13
  %overflowValues21.i = getelementptr inbounds nuw i8, ptr %hll, i64 32
  store ptr %cond15.i, ptr %overflowValues21.i, align 8, !alias.scope !13
  %call = call fastcc noundef i64 @_ZN8facebook5velox6common3hll12_GLOBAL__N_115cardinalityImplERKNS3_12DenseHllViewE(ptr noundef nonnull align 8 dereferenceable(40) %hll)
  ret i64 %call
}